; Function Attrs: nounwind uwtable
define internal i32 @dsa_pkey_copy(ptr noundef %0, ptr noundef readonly captures(none) %1) #0 {
  %3 = getelementptr inbounds nuw i8, ptr %1, i64 32
  %4 = load ptr, ptr %3, align 8, !tbaa !29
  %.not = icmp eq ptr %4, null
  br i1 %.not, label %8, label %5

5:                                                ; preds = %2
  %6 = tail call ptr @ossl_dsa_dup(ptr noundef nonnull %4, i32 noundef 135) #5
  %7 = icmp eq ptr %6, null
  br i1 %7, label %11, label %8

8:                                                ; preds = %5, %2
  %.09 = phi ptr [ %6, %5 ], [ null, %2 ]
  %9 = tail call i32 @EVP_PKEY_assign(ptr noundef %0, i32 noundef 116, ptr noundef %.09) #5
  %.not12 = icmp eq i32 %9, 0
  br i1 %.not12, label %10, label %11

10:                                               ; preds = %8
  tail call void @DSA_free(ptr noundef %.09) #5
  br label %11

11:                                               ; preds = %8, %10, %5
  %.0 = phi i32 [ 0, %5 ], [ 0, %10 ], [ %9, %8 ]
  ret i32 %.0
}